target datalayout = "e-m:e-p270:32:32-p271:32:32-p272:64:64-i64:64-i128:128-f80:128-n8:16:32:64-S128"
target triple = "x86_64-pc-linux-gnu"

@show_progress = internal global i32 -1, align 4
@expire = internal global i64 0, align 8
@the_repository = external global ptr, align 8
@.str.12 = private unnamed_addr constant [1 x i8] zeroinitializer, align 1
@git_gettext_enabled = external global i32, align 4
@perform_reachability_traversal.initialized = internal global i32 0, align 4
@.str.26 = private unnamed_addr constant [22 x i8] c"Checking connectivity\00", align 1
@.str.27 = private unnamed_addr constant [5 x i8] c"done\00", align 1

; Function Attrs: inlinehint nounwind uwtable
define internal void @stop_progress(ptr noundef %0) #5 {
  %2 = alloca ptr, align 8
  store ptr %0, ptr %2, align 8, !tbaa !55
  %3 = load ptr, ptr %2, align 8, !tbaa !55
  %4 = call ptr @_(ptr noundef @.str.27)
  call void @stop_progress_msg(ptr noundef %3, ptr noundef %4)
  ret void
}

; Function Attrs: inlinehint nounwind uwtable
define internal ptr @_(ptr noundef %0) #5 {
  %2 = alloca ptr, align 8
  %3 = alloca ptr, align 8
  store ptr %0, ptr %3, align 8, !tbaa !11
  %4 = load ptr, ptr %3, align 8, !tbaa !11
  %5 = load i8, ptr %4, align 1, !tbaa !34
  %6 = icmp ne i8 %5, 0
  br i1 %6, label %8, label %7

7:                                                ; preds = %1
  store ptr @.str.12, ptr %2, align 8
  br label %16

8:                                                ; preds = %1
  %9 = load i32, ptr @git_gettext_enabled, align 4, !tbaa !4
  %10 = icmp ne i32 %9, 0
  br i1 %10, label %13, label %11

11:                                               ; preds = %8
  %12 = load ptr, ptr %3, align 8, !tbaa !11
  store ptr %12, ptr %2, align 8
  br label %16

13:                                               ; preds = %8
  %14 = load ptr, ptr %3, align 8, !tbaa !11
  %15 = call ptr @dcgettext(ptr noundef null, ptr noundef %14, i32 noundef 5) #10
  store ptr %15, ptr %2, align 8
  br label %16

16:                                               ; preds = %13, %11, %7
  %17 = load ptr, ptr %2, align 8
  ret ptr %17
}

; Function Attrs: nounwind uwtable
define internal void @perform_reachability_traversal(ptr noundef %0) #0 {
  %2 = alloca ptr, align 8
  %3 = alloca ptr, align 8
  %4 = alloca i32, align 4
  store ptr %0, ptr %2, align 8, !tbaa !38
  call void @llvm.lifetime.start.p0(i64 8, ptr %3) #10
  store ptr null, ptr %3, align 8, !tbaa !50
  %5 = load i32, ptr @perform_reachability_traversal.initialized, align 4, !tbaa !4
  %6 = icmp ne i32 %5, 0
  br i1 %6, label %7, label %8

7:                                                ; preds = %1
  store i32 1, ptr %4, align 4
  br label %19

8:                                                ; preds = %1
  %9 = load i32, ptr @show_progress, align 4, !tbaa !4
  %10 = icmp ne i32 %9, 0
  br i1 %10, label %11, label %15

11:                                               ; preds = %8
  %12 = load ptr, ptr @the_repository, align 8, !tbaa !13
  %13 = call ptr @_(ptr noundef @.str.26)
  %14 = call ptr @start_delayed_progress(ptr noundef %12, ptr noundef %13, i64 noundef 0)
  store ptr %14, ptr %3, align 8, !tbaa !50
  br label %15

15:                                               ; preds = %11, %8
  %16 = load ptr, ptr %2, align 8, !tbaa !38
  %17 = load i64, ptr @expire, align 8, !tbaa !29
  %18 = load ptr, ptr %3, align 8, !tbaa !50
  call void @mark_reachable_objects(ptr noundef %16, i32 noundef 1, i64 noundef %17, ptr noundef %18)
  call void @stop_progress(ptr noundef %3)
  store i32 1, ptr @perform_reachability_traversal.initialized, align 4, !tbaa !4
  store i32 0, ptr %4, align 4
  br label %19

19:                                               ; preds = %15, %7
  call void @llvm.lifetime.end.p0(i64 8, ptr %3) #10
  %20 = load i32, ptr %4, align 4
  switch i32 %20, label %22 [
    i32 0, label %21
    i32 1, label %21
  ]

21:                                               ; preds = %19, %19
  ret void

22:                                               ; preds = %19
  unreachable
}