; Function Attrs: nounwind uwtable
define internal fastcc void @perform_reachability_traversal(ptr noundef %0) unnamed_addr #0 {
  %2 = alloca ptr, align 8
  call void @llvm.lifetime.start.p0(i64 8, ptr nonnull %2) #12
  store ptr null, ptr %2, align 8, !tbaa !34
  %.b = load i1, ptr @perform_reachability_traversal.initialized, align 4
  br i1 %.b, label %17, label %3

3:                                                ; preds = %1
  %4 = load i32, ptr @show_progress, align 4, !tbaa !4
  %.not = icmp eq i32 %4, 0
  br i1 %.not, label %11, label %5

5:                                                ; preds = %3
  %6 = load ptr, ptr @the_repository, align 8, !tbaa !22
  %7 = load i32, ptr @git_gettext_enabled, align 4, !tbaa !4
  %.not4.i = icmp eq i32 %7, 0
  br i1 %.not4.i, label %_.exit, label %8

8:                                                ; preds = %5
  %9 = tail call ptr @dcgettext(ptr noundef null, ptr noundef nonnull @.str.26, i32 noundef 5) #12
  br label %_.exit

_.exit:                                           ; preds = %5, %8
  %.0.i = phi ptr [ %9, %8 ], [ @.str.26, %5 ]
  %10 = tail call ptr @start_delayed_progress(ptr noundef %6, ptr noundef %.0.i, i64 noundef 0) #12
  store ptr %10, ptr %2, align 8, !tbaa !34
  br label %11

11:                                               ; preds = %_.exit, %3
  %12 = phi ptr [ %10, %_.exit ], [ null, %3 ]
  %13 = load i64, ptr @expire, align 8, !tbaa !21
  tail call void @mark_reachable_objects(ptr noundef %0, i32 noundef 1, i64 noundef %13, ptr noundef %12) #12
  %14 = load i32, ptr @git_gettext_enabled, align 4, !tbaa !4
  %.not4.i.i = icmp eq i32 %14, 0
  br i1 %.not4.i.i, label %stop_progress.exit, label %15

15:                                               ; preds = %11
  %16 = tail call ptr @dcgettext(ptr noundef null, ptr noundef nonnull @.str.27, i32 noundef 5) #12
  br label %stop_progress.exit

stop_progress.exit:                               ; preds = %11, %15
  %.0.i.i = phi ptr [ %16, %15 ], [ @.str.27, %11 ]
  call void @stop_progress_msg(ptr noundef nonnull %2, ptr noundef %.0.i.i) #12
  store i1 true, ptr @perform_reachability_traversal.initialized, align 4
  br label %17

17:                                               ; preds = %1, %stop_progress.exit
  call void @llvm.lifetime.end.p0(i64 8, ptr nonnull %2) #12
  ret void
}